; Function Attrs: mustprogress nounwind uwtable
define internal void @_ZNSt17_Function_handlerIFvPN5folly17ShutdownSocketSetEEZNS0_9SingletonIS1_NS0_12_GLOBAL__N_110PrivateTagENS0_6detail10DefaultTagEE15getTeardownFuncESt8functionIS3_EEUlS2_E_E9_M_invokeERKSt9_Any_dataOS2_(ptr nonnull readnone align 8 captures(none) %0, ptr noundef nonnull readonly align 8 captures(none) dereferenceable(8) %1) #12 align 2 personality ptr @__gxx_personality_v0 {
  %.val = load ptr, ptr %1, align 8, !tbaa !202
  %3 = icmp eq ptr %.val, null
  br i1 %3, label %_ZSt10__invoke_rIvRZN5folly9SingletonINS0_17ShutdownSocketSetENS0_12_GLOBAL__N_110PrivateTagENS0_6detail10DefaultTagEE15getTeardownFuncESt8functionIFvPS2_EEEUlS9_E_JS9_EENSt9enable_ifIX16is_invocable_r_vIT_T0_DpT1_EESF_E4typeEOSG_DpOSH_.exit, label %4

4:                                                ; preds = %2
  %5 = getelementptr inbounds nuw i8, ptr %.val, i64 16
  tail call void @_ZN5folly4FileD1Ev(ptr noundef nonnull align 4 dereferenceable(5) %5) #21
  %6 = getelementptr inbounds nuw i8, ptr %.val, i64 8
  %7 = load ptr, ptr %6, align 8, !tbaa !540
  %.not.i.i.i.i.i = icmp eq ptr %7, null
  br i1 %.not.i.i.i.i.i, label %_ZN5folly17ShutdownSocketSetD2Ev.exit.i.i.i, label %8

8:                                                ; preds = %4
  tail call void @free(ptr noundef nonnull %7) #21
  br label %_ZN5folly17ShutdownSocketSetD2Ev.exit.i.i.i

_ZN5folly17ShutdownSocketSetD2Ev.exit.i.i.i:      ; preds = %8, %4
  tail call void @_ZdlPvm(ptr noundef nonnull %.val, i64 noundef 24) #34
  br label %_ZSt10__invoke_rIvRZN5folly9SingletonINS0_17ShutdownSocketSetENS0_12_GLOBAL__N_110PrivateTagENS0_6detail10DefaultTagEE15getTeardownFuncESt8functionIFvPS2_EEEUlS9_E_JS9_EENSt9enable_ifIX16is_invocable_r_vIT_T0_DpT1_EESF_E4typeEOSG_DpOSH_.exit

_ZSt10__invoke_rIvRZN5folly9SingletonINS0_17ShutdownSocketSetENS0_12_GLOBAL__N_110PrivateTagENS0_6detail10DefaultTagEE15getTeardownFuncESt8functionIFvPS2_EEEUlS9_E_JS9_EENSt9enable_ifIX16is_invocable_r_vIT_T0_DpT1_EESF_E4typeEOSG_DpOSH_.exit: ; preds = %2, %_ZN5folly17ShutdownSocketSetD2Ev.exit.i.i.i
  ret void
}